(dp1
S'output'
p2
S"<type 'exceptions.AttributeError'> 'Query' object has no attribute 'type'"
p3
sS'layer'
p4
S'/home/mat/Downloads/web2py/applications/blog/controllers/default.py'
p5
sS'code'
p6
S'# -*- coding: utf-8 -*-\n# this file is released under public domain and you can use without limitations\n\n#########################################################################\n## This is a sample controller\n## - index is the default action of any application\n## - user is required for authentication and authorization\n## - download is for downloading files uploaded in the db (does streaming)\n#########################################################################\n\ndef index():\n    """\n    example action using the internationalization operator T and flash\n    rendered by views/default/index.html or views/generic.html\n\n    if you need a simple wiki simply replace the two lines below with:\n    return auth.wiki()\n    """\n    posts = db().select(db.post.ALL);\n    return dict(posts=posts)\n\n@auth.requires_login()\ndef create():\n    form = SQLFORM(db.post)\n    if form.process().accepted:\n        response.flash = \'Your blog was posted\'\n    return dict(form=form)\n\n#@auth.requires_login()\ndef show():\n    #TODO: Allow editing/ deletion if you\'re the user who created this\n    cur_user = auth.user\n    post = db.post(request.args(0,cast=int)) or redirect(URL(\'index\'))\n    title=post.title\n    user_id=post.user_id\n    username = db\n    same = cur_user.id == user_id\n    body = post.body\n    comments = db(db.post_com.post_id==post.id).select()\n\n    user = db().select(db.auth_user.id == user_id).first()\n    username = user.first_name + " " + user.last_name\n    #TODO: autofill db.comment.post_id with post.id\n    form = SQLFORM(db.post_com)\n    db.post_com.post_id.default = post.id\n    if form.process().accepted:\n        response.flash = \'Comment posted\'\n    return dict(same=same, title=title, post_id=post.id, username=username, user_id=user_id, body=body, comments=comments, form=form)\n\ndef profile():\n    user_id = request.args(0, cast=int)\n    user = db().select(db.auth_user.id == user_id)#.first()\n    username = user.first_name + " " + user.last_name\n    posts = db(db.post.user_id == user_id).select()\n    return dict(user=user,username=username, posts=posts)\n\n#Require specific user\n#this crashes for some reason I have no fucking clue why\n@auth.requires_login()\ndef edit():\n    post_id = request.args(0,cast=int)\n    record = db(db.post.id == post_id).select().first()\n    form = SQLFORM(db.post, record, deletable = True, delete_label=T(\'Check to delete\'))\n    if form.accepts(request.vars, session):\n        session.flash = T(\'done!\')\n    return dict(form=form)\n\ndef user():\n    """\n    exposes:\n    http://..../[app]/default/user/login\n    http://..../[app]/default/user/logout\n    http://..../[app]/default/user/register\n    http://..../[app]/default/user/profile\n    http://..../[app]/default/user/retrieve_password\n    http://..../[app]/default/user/change_password\n    http://..../[app]/default/user/manage_users (requires membership in\n    http://..../[app]/default/user/bulk_register\n    use @auth.requires_login()\n        @auth.requires_membership(\'group name\')\n        @auth.requires_permission(\'read\',\'table name\',record_id)\n    to decorate functions that need access control\n    """\n    return dict(form=auth())\n\n\n@cache.action()\ndef download():\n    """\n    allows downloading of uploaded files\n    http://..../[app]/default/download/[filename]\n    """\n    return response.download(request, db)\n\n\ndef call():\n    """\n    exposes services. for example:\n    http://..../[app]/default/call/jsonrpc\n    decorate with @services.jsonrpc the functions to expose\n    supports xml, json, xmlrpc, jsonrpc, amfrpc, rss, csv\n    """\n    return service()\n\nresponse._vars=response._caller(profile)\n'
p7
sS'snapshot'
p8
(dp9
sS'traceback'
p10
S'Traceback (most recent call last):\n  File "/home/mat/Downloads/web2py/gluon/restricted.py", line 227, in restricted\n    exec ccode in environment\n  File "/home/mat/Downloads/web2py/applications/blog/controllers/default.py", line 105, in <module>\n  File "/home/mat/Downloads/web2py/gluon/globals.py", line 412, in <lambda>\n    self._caller = lambda f: f()\n  File "/home/mat/Downloads/web2py/applications/blog/controllers/default.py", line 52, in profile\n    user = db().select(db.auth_user.id == user_id)#.first()\n  File "/home/mat/Downloads/web2py/gluon/packages/dal/pydal/objects.py", line 2002, in select\n    return adapter.select(self.query,fields,attributes)\n  File "/home/mat/Downloads/web2py/gluon/packages/dal/pydal/adapters/sqlite.py", line 122, in select\n    return super(SQLiteAdapter, self).select(query, fields, attributes)\n  File "/home/mat/Downloads/web2py/gluon/packages/dal/pydal/adapters/base.py", line 1273, in select\n    sql = self._select(query, fields, attributes)\n  File "/home/mat/Downloads/web2py/gluon/packages/dal/pydal/adapters/base.py", line 1102, in _select\n    sql_f = \', \'.join(map(geoexpand, fields))\n  File "/home/mat/Downloads/web2py/gluon/packages/dal/pydal/adapters/base.py", line 1099, in geoexpand\n    if isinstance(field.type,str) and field.type.startswith(\'geo\') and isinstance(field, Field):\nAttributeError: \'Query\' object has no attribute \'type\'\n'
p11
s.